target datalayout = "e-m:e-p270:32:32-p271:32:32-p272:64:64-i64:64-i128:128-f80:128-n8:16:32:64-S128"
target triple = "x86_64-pc-linux-gnu"

; Function Attrs: nounwind uwtable
define ptr @__lzma_wrap_alloc(ptr noundef %0, i64 noundef %1) #0 {
  %3 = alloca ptr, align 8
  %4 = alloca ptr, align 8
  %5 = alloca i64, align 8
  store ptr %0, ptr %4, align 8
  store i64 %1, ptr %5, align 8
  %6 = load i64, ptr %5, align 8
  %7 = icmp ne i64 %6, 0
  br i1 %7, label %8, label %11

8:                                                ; preds = %2
  %9 = load i64, ptr %5, align 8
  %10 = icmp ugt i64 %9, 1073741824
  br i1 %10, label %11, label %12

11:                                               ; preds = %8, %2
  store ptr null, ptr %3, align 8
  br label %15

12:                                               ; preds = %8
  %13 = load i64, ptr %5, align 8
  %14 = call ptr @cli_max_calloc(i64 noundef 1, i64 noundef %13)
  store ptr %14, ptr %3, align 8
  br label %15

15:                                               ; preds = %12, %11
  %16 = load ptr, ptr %3, align 8
  ret ptr %16
}