; Function Attrs: nounwind uwtable
define ptr @__lzma_wrap_alloc(ptr nocapture readnone %0, i64 noundef %1) #0 {
  %3 = add i64 %1, -1073741825
  %or.cond = icmp ult i64 %3, -1073741824
  br i1 %or.cond, label %6, label %4

4:                                                ; preds = %2
  %5 = tail call ptr @cli_max_calloc(i64 noundef 1, i64 noundef %1) #6
  br label %6

6:                                                ; preds = %2, %4
  %.0 = phi ptr [ %5, %4 ], [ null, %2 ]
  ret ptr %.0
}